target datalayout = "e-m:e-p270:32:32-p271:32:32-p272:64:64-i64:64-i128:128-f80:128-n8:16:32:64-S128"
target triple = "x86_64-pc-linux-gnu"

%"class.base::BasicStringPiece" = type { ptr, i64 }

; Function Attrs: inlinehint mustprogress nounwind uwtable
define linkonce_odr noundef signext i8 @_ZN4base12ToLowerASCIIEc(i8 noundef signext %0) #7 comdat {
  %2 = alloca i8, align 1
  store i8 %0, ptr %2, align 1, !tbaa !29
  %3 = load i8, ptr %2, align 1, !tbaa !29
  %4 = sext i8 %3 to i32
  %5 = icmp sge i32 %4, 65
  br i1 %5, label %6, label %14

6:                                                ; preds = %1
  %7 = load i8, ptr %2, align 1, !tbaa !29
  %8 = sext i8 %7 to i32
  %9 = icmp sle i32 %8, 90
  br i1 %9, label %10, label %14

10:                                               ; preds = %6
  %11 = load i8, ptr %2, align 1, !tbaa !29
  %12 = sext i8 %11 to i32
  %13 = add nsw i32 %12, 32
  br label %17

14:                                               ; preds = %6, %1
  %15 = load i8, ptr %2, align 1, !tbaa !29
  %16 = sext i8 %15 to i32
  br label %17

17:                                               ; preds = %14, %10
  %18 = phi i32 [ %13, %10 ], [ %16, %14 ]
  %19 = trunc i32 %18 to i8
  ret i8 %19
}

; Function Attrs: mustprogress nounwind uwtable
define available_externally noundef signext i8 @_ZNK4base16BasicStringPieceINSt7__cxx1112basic_stringIcSt11char_traitsIcESaIcEEEEixEm(ptr noundef nonnull align 8 dereferenceable(16) %0, i64 noundef %1) #0 align 2 {
  %3 = alloca ptr, align 8
  %4 = alloca i64, align 8
  store ptr %0, ptr %3, align 8, !tbaa !34
  store i64 %1, ptr %4, align 8, !tbaa !20
  %5 = load ptr, ptr %3, align 8
  %6 = getelementptr inbounds nuw %"class.base::BasicStringPiece", ptr %5, i32 0, i32 0
  %7 = load ptr, ptr %6, align 8, !tbaa !49
  %8 = load i64, ptr %4, align 8, !tbaa !20
  %9 = getelementptr inbounds nuw i8, ptr %7, i64 %8
  %10 = load i8, ptr %9, align 1, !tbaa !29
  ret i8 %10
}

; Function Attrs: mustprogress nounwind uwtable
define available_externally noundef i64 @_ZNK4base16BasicStringPieceINSt7__cxx1112basic_stringIcSt11char_traitsIcESaIcEEEE6lengthEv(ptr noundef nonnull align 8 dereferenceable(16) %0) #0 align 2 {
  %2 = alloca ptr, align 8
  store ptr %0, ptr %2, align 8, !tbaa !34
  %3 = load ptr, ptr %2, align 8
  %4 = getelementptr inbounds nuw %"class.base::BasicStringPiece", ptr %3, i32 0, i32 1
  %5 = load i64, ptr %4, align 8, !tbaa !36
  ret i64 %5
}

; Function Attrs: mustprogress uwtable
define linkonce_odr noundef i32 @_ZN4base28CompareCaseInsensitiveASCIITINSt7__cxx1112basic_stringIcSt11char_traitsIcESaIcEEEEEiNS_16BasicStringPieceIT_EES9_(ptr %0, i64 %1, ptr %2, i64 %3) #3 comdat {
  %5 = alloca i32, align 4
  %6 = alloca %"class.base::BasicStringPiece", align 8
  %7 = alloca %"class.base::BasicStringPiece", align 8
  %8 = alloca i64, align 8
  %9 = alloca i8, align 1
  %10 = alloca i8, align 1
  %11 = alloca i32, align 4
  %12 = getelementptr inbounds nuw { ptr, i64 }, ptr %6, i32 0, i32 0
  store ptr %0, ptr %12, align 8
  %13 = getelementptr inbounds nuw { ptr, i64 }, ptr %6, i32 0, i32 1
  store i64 %1, ptr %13, align 8
  %14 = getelementptr inbounds nuw { ptr, i64 }, ptr %7, i32 0, i32 0
  store ptr %2, ptr %14, align 8
  %15 = getelementptr inbounds nuw { ptr, i64 }, ptr %7, i32 0, i32 1
  store i64 %3, ptr %15, align 8
  call void @llvm.lifetime.start.p0(i64 8, ptr %8) #17
  store i64 0, ptr %8, align 8, !tbaa !20
  br label %16

16:                                               ; preds = %51, %4
  %17 = load i64, ptr %8, align 8, !tbaa !20
  %18 = call noundef i64 @_ZNK4base16BasicStringPieceINSt7__cxx1112basic_stringIcSt11char_traitsIcESaIcEEEE6lengthEv(ptr noundef nonnull align 8 dereferenceable(16) %6)
  %19 = icmp ult i64 %17, %18
  br i1 %19, label %20, label %24

20:                                               ; preds = %16
  %21 = load i64, ptr %8, align 8, !tbaa !20
  %22 = call noundef i64 @_ZNK4base16BasicStringPieceINSt7__cxx1112basic_stringIcSt11char_traitsIcESaIcEEEE6lengthEv(ptr noundef nonnull align 8 dereferenceable(16) %7)
  %23 = icmp ult i64 %21, %22
  br label %24

24:                                               ; preds = %20, %16
  %25 = phi i1 [ false, %16 ], [ %23, %20 ]
  br i1 %25, label %26, label %52

26:                                               ; preds = %24
  call void @llvm.lifetime.start.p0(i64 1, ptr %9) #17
  %27 = load i64, ptr %8, align 8, !tbaa !20
  %28 = call noundef signext i8 @_ZNK4base16BasicStringPieceINSt7__cxx1112basic_stringIcSt11char_traitsIcESaIcEEEEixEm(ptr noundef nonnull align 8 dereferenceable(16) %6, i64 noundef %27)
  %29 = call noundef signext i8 @_ZN4base12ToLowerASCIIEc(i8 noundef signext %28)
  store i8 %29, ptr %9, align 1, !tbaa !29
  call void @llvm.lifetime.start.p0(i64 1, ptr %10) #17
  %30 = load i64, ptr %8, align 8, !tbaa !20
  %31 = call noundef signext i8 @_ZNK4base16BasicStringPieceINSt7__cxx1112basic_stringIcSt11char_traitsIcESaIcEEEEixEm(ptr noundef nonnull align 8 dereferenceable(16) %7, i64 noundef %30)
  %32 = call noundef signext i8 @_ZN4base12ToLowerASCIIEc(i8 noundef signext %31)
  store i8 %32, ptr %10, align 1, !tbaa !29
  %33 = load i8, ptr %9, align 1, !tbaa !29
  %34 = sext i8 %33 to i32
  %35 = load i8, ptr %10, align 1, !tbaa !29
  %36 = sext i8 %35 to i32
  %37 = icmp slt i32 %34, %36
  br i1 %37, label %38, label %39

38:                                               ; preds = %26
  store i32 -1, ptr %5, align 4
  store i32 1, ptr %11, align 4
  br label %49

39:                                               ; preds = %26
  %40 = load i8, ptr %9, align 1, !tbaa !29
  %41 = sext i8 %40 to i32
  %42 = load i8, ptr %10, align 1, !tbaa !29
  %43 = sext i8 %42 to i32
  %44 = icmp sgt i32 %41, %43
  br i1 %44, label %45, label %46

45:                                               ; preds = %39
  store i32 1, ptr %5, align 4
  store i32 1, ptr %11, align 4
  br label %49

46:                                               ; preds = %39
  %47 = load i64, ptr %8, align 8, !tbaa !20
  %48 = add i64 %47, 1
  store i64 %48, ptr %8, align 8, !tbaa !20
  store i32 0, ptr %11, align 4
  br label %49

49:                                               ; preds = %46, %45, %38
  call void @llvm.lifetime.end.p0(i64 1, ptr %10) #17
  call void @llvm.lifetime.end.p0(i64 1, ptr %9) #17
  %50 = load i32, ptr %11, align 4
  switch i32 %50, label %63 [
    i32 0, label %51
  ]

51:                                               ; preds = %49
  br label %16, !llvm.loop !30

52:                                               ; preds = %24
  %53 = call noundef i64 @_ZNK4base16BasicStringPieceINSt7__cxx1112basic_stringIcSt11char_traitsIcESaIcEEEE6lengthEv(ptr noundef nonnull align 8 dereferenceable(16) %6)
  %54 = call noundef i64 @_ZNK4base16BasicStringPieceINSt7__cxx1112basic_stringIcSt11char_traitsIcESaIcEEEE6lengthEv(ptr noundef nonnull align 8 dereferenceable(16) %7)
  %55 = icmp eq i64 %53, %54
  br i1 %55, label %56, label %57

56:                                               ; preds = %52
  store i32 0, ptr %5, align 4
  store i32 1, ptr %11, align 4
  br label %63

57:                                               ; preds = %52
  %58 = call noundef i64 @_ZNK4base16BasicStringPieceINSt7__cxx1112basic_stringIcSt11char_traitsIcESaIcEEEE6lengthEv(ptr noundef nonnull align 8 dereferenceable(16) %6)
  %59 = call noundef i64 @_ZNK4base16BasicStringPieceINSt7__cxx1112basic_stringIcSt11char_traitsIcESaIcEEEE6lengthEv(ptr noundef nonnull align 8 dereferenceable(16) %7)
  %60 = icmp ult i64 %58, %59
  br i1 %60, label %61, label %62

61:                                               ; preds = %57
  store i32 -1, ptr %5, align 4
  store i32 1, ptr %11, align 4
  br label %63

62:                                               ; preds = %57
  store i32 1, ptr %5, align 4
  store i32 1, ptr %11, align 4
  br label %63

63:                                               ; preds = %62, %61, %56, %49
  call void @llvm.lifetime.end.p0(i64 8, ptr %8) #17
  %64 = load i32, ptr %5, align 4
  ret i32 %64
}

; Function Attrs: mustprogress uwtable
define noundef i32 @_ZN4base27CompareCaseInsensitiveASCIIENS_16BasicStringPieceINSt7__cxx1112basic_stringIcSt11char_traitsIcESaIcEEEEES7_(ptr %0, i64 %1, ptr %2, i64 %3) #3 {
  %5 = alloca %"class.base::BasicStringPiece", align 8
  %6 = alloca %"class.base::BasicStringPiece", align 8
  %7 = alloca %"class.base::BasicStringPiece", align 8
  %8 = alloca %"class.base::BasicStringPiece", align 8
  %9 = getelementptr inbounds nuw { ptr, i64 }, ptr %5, i32 0, i32 0
  store ptr %0, ptr %9, align 8
  %10 = getelementptr inbounds nuw { ptr, i64 }, ptr %5, i32 0, i32 1
  store i64 %1, ptr %10, align 8
  %11 = getelementptr inbounds nuw { ptr, i64 }, ptr %6, i32 0, i32 0
  store ptr %2, ptr %11, align 8
  %12 = getelementptr inbounds nuw { ptr, i64 }, ptr %6, i32 0, i32 1
  store i64 %3, ptr %12, align 8
  call void @llvm.memcpy.p0.p0.i64(ptr align 8 %7, ptr align 8 %5, i64 16, i1 false), !tbaa.struct !17
  call void @llvm.memcpy.p0.p0.i64(ptr align 8 %8, ptr align 8 %6, i64 16, i1 false), !tbaa.struct !17
  %13 = getelementptr inbounds nuw { ptr, i64 }, ptr %7, i32 0, i32 0
  %14 = load ptr, ptr %13, align 8
  %15 = getelementptr inbounds nuw { ptr, i64 }, ptr %7, i32 0, i32 1
  %16 = load i64, ptr %15, align 8
  %17 = getelementptr inbounds nuw { ptr, i64 }, ptr %8, i32 0, i32 0
  %18 = load ptr, ptr %17, align 8
  %19 = getelementptr inbounds nuw { ptr, i64 }, ptr %8, i32 0, i32 1
  %20 = load i64, ptr %19, align 8
  %21 = call noundef i32 @_ZN4base28CompareCaseInsensitiveASCIITINSt7__cxx1112basic_stringIcSt11char_traitsIcESaIcEEEEEiNS_16BasicStringPieceIT_EES9_(ptr %14, i64 %16, ptr %18, i64 %20)
  ret i32 %21
}